/*
 * Intel ACPI Component Architecture
 * AML/ASL+ Disassembler version 20160729-64
 * Copyright (c) 2000 - 2016 Intel Corporation
 * 
 * Disassembly of /Users/liemvu/Desktop/e7480_install_10.13/edid/DarwinDumper_3.0.4_20.05_15.54.36_MacBookPro14,1_AMI_X64_4444.RM-4652.23891(c1f8602f.abe73e2ebe)__High Sierra_17E202_liemvu/ACPI Tables/AML/MCFG.aml, Sun May 20 15:55:00 2018
 *
 * ACPI Data Table [MCFG]
 *
 * Format: [HexOffset DecimalOffset ByteLength]  FieldName : FieldValue
 */

[000h 0000   4]                    Signature : "MCFG"    [Memory Mapped Configuration table]
[004h 0004   4]                 Table Length : 0000003C
[008h 0008   1]                     Revision : 01
[009h 0009   1]                     Checksum : 64
[00Ah 0010   6]                       Oem ID : "DELL  "
[010h 0016   8]                 Oem Table ID : "CBX3   "
[018h 0024   4]                 Oem Revision : 01072009
[01Ch 0028   4]              Asl Compiler ID : "MSFT"
[020h 0032   4]        Asl Compiler Revision : 00000097

[024h 0036   8]                     Reserved : 0000000000000000

[02Ch 0044   8]                 Base Address : 00000000F0000000
[034h 0052   2]         Segment Group Number : 0000
[036h 0054   1]             Start Bus Number : 00
[037h 0055   1]               End Bus Number : 7F
[038h 0056   4]                     Reserved : 00000000

Raw Table Data: Length 60 (0x3C)

  0000: 4D 43 46 47 3C 00 00 00 01 64 44 45 4C 4C 20 20  // MCFG<....dDELL  
  0010: 43 42 58 33 20 20 20 00 09 20 07 01 4D 53 46 54  // CBX3   .. ..MSFT
  0020: 97 00 00 00 00 00 00 00 00 00 00 00 00 00 00 F0  // ................
  0030: 00 00 00 00 00 00 00 7F 00 00 00 00              // ............
